c__builtin__
set
p0
((lp1
S'Toronto'
p2
aS'Brampton'
p3
aS'Little britain'
p4
aS'Norval'
p5
aS'Woodstock'
p6
aS'North bay'
p7
aS'Acton'
p8
aS'Pickering'
p9
aS'Burlington'
p10
aS'Hornby'
p11
aS'Waterford'
p12
aS'Markham'
p13
aS'Whitchurch-stouffville'
p14
aS'Scarborough'
p15
aS'Dunnville'
p16
aS'Saint-leonard'
p17
aS'Courtice'
p18
aS'Timmins'
p19
aS'Mount albert'
p20
aS'Port hope'
p21
aS'Aurora'
p22
aS'Inglewood'
p23
aS'2201 adullam avenue'
p24
aS'Ajax'
p25
aS'Newmarket'
p26
aS'Hamilton'
p27
aS'Beeton'
p28
aS'Barrie'
p29
aS'Sebright'
p30
aS'London'
p31
aS'Tottenham'
p32
aS'Cobourg'
p33
aS'York'
p34
aS'Bradford'
p35
aS'Halton hills'
p36
aS'Thornhill'
p37
aS'Kleinburg'
p38
aS'Mono'
p39
aS'Mississauga'
p40
aS'Whitby'
p41
aS'North york'
p42
aS'Oakville'
p43
aS'Caledon'
p44
aS'Oshawa'
p45
aS'Nobleton'
p46
aS'East york'
p47
aS'Palgrave'
p48
aS'St. catharines'
p49
aS'Pierrefonds'
p50
aS'9800 boul gouin ouest'
p51
aS'Ayston'
p52
aS'Cookstown'
p53
aS'Concord'
p54
aS'St. catherines'
p55
aS'Orangeville'
p56
aS'Woodbridge'
p57
aS'King city'
p58
aS'Etobicoke'
p59
aS'Erin'
p60
aS'Bancroft'
p61
aS'Watford'
p62
aS'Keswick'
p63
aS'Laval'
p64
aS'Richmond hill'
p65
aS'Bond head'
p66
aS'Milton'
p67
aS'Windsor'
p68
aS'Maple'
p69
aS'Vaughan'
p70
atp71
Rp72
.